target datalayout = "e-m:e-p270:32:32-p271:32:32-p272:64:64-i64:64-i128:128-f80:128-n8:16:32:64-S128"
target triple = "x86_64-pc-linux-gnu"

@_ZZN11ClassLoader24file_name_for_class_nameEPKciE12class_suffix = internal constant [7 x i8] c".class\00", align 1

; Function Attrs: mustprogress nounwind uwtable
define hidden noundef ptr @_ZN11ClassLoader24file_name_for_class_nameEPKci(ptr noundef %0, i32 noundef %1) #1 align 2 {
  %3 = alloca ptr, align 8
  %4 = alloca i32, align 4
  %5 = alloca i64, align 8
  %6 = alloca ptr, align 8
  store ptr %0, ptr %3, align 8
  store i32 %1, ptr %4, align 4
  store i64 7, ptr %5, align 8
  %7 = load i32, ptr %4, align 4
  %8 = sext i32 %7 to i64
  %9 = load i64, ptr %5, align 8
  %10 = add i64 %8, %9
  %11 = mul i64 %10, 1
  %12 = call noundef ptr @_Z23resource_allocate_bytesmN17AllocFailStrategy13AllocFailEnumE(i64 noundef %11, i32 noundef 0)
  store ptr %12, ptr %6, align 8
  %13 = load ptr, ptr %6, align 8
  %14 = load ptr, ptr %3, align 8
  %15 = load i32, ptr %4, align 4
  %16 = sext i32 %15 to i64
  %17 = call ptr @strncpy(ptr noundef %13, ptr noundef %14, i64 noundef %16) #13
  %18 = load ptr, ptr %6, align 8
  %19 = load i32, ptr %4, align 4
  %20 = sext i32 %19 to i64
  %21 = getelementptr inbounds i8, ptr %18, i64 %20
  %22 = load i64, ptr %5, align 8
  %23 = call ptr @strncpy(ptr noundef %21, ptr noundef @_ZZN11ClassLoader24file_name_for_class_nameEPKciE12class_suffix, i64 noundef %22) #13
  %24 = load ptr, ptr %6, align 8
  ret ptr %24
}