; Function Attrs: mustprogress nounwind uwtable
define hidden noundef ptr @_ZN11ClassLoader24file_name_for_class_nameEPKci(ptr nocapture noundef readonly %0, i32 noundef %1) local_unnamed_addr #0 align 2 {
  %3 = sext i32 %1 to i64
  %4 = add nsw i64 %3, 7
  %5 = tail call noundef ptr @_Z23resource_allocate_bytesmN17AllocFailStrategy13AllocFailEnumE(i64 noundef %4, i32 noundef 0) #20
  %6 = tail call ptr @strncpy(ptr noundef %5, ptr noundef %0, i64 noundef %3) #20
  %7 = getelementptr inbounds i8, ptr %5, i64 %3
  tail call void @llvm.memcpy.p0.p0.i64(ptr noundef nonnull align 1 dereferenceable(7) %7, ptr noundef nonnull align 1 dereferenceable(7) @_ZZN11ClassLoader24file_name_for_class_nameEPKciE12class_suffix, i64 noundef 7, i1 false) #20
  ret ptr %5
}